(lp0
S'poi'
p1
aS'salary'
p2
aS'total_payments'
p3
aS'loan_advances'
p4
aS'bonus'
p5
aS'deferred_income'
p6
aS'total_stock_value'
p7
aS'expenses'
p8
aS'exercised_stock_options'
p9
aS'other'
p10
aS'long_term_incentive'
p11
aS'restricted_stock'
p12
aS'from_messages_POI'
p13
aS'shared_messages_POI'
p14
a.